; ModuleID = '34/122.c'
source_filename = "34/122.c"
target datalayout = "e-m:e-p270:32:32-p271:32:32-p272:64:64-i64:64-f80:128-n8:16:32:64-S128"
target triple = "x86_64-pc-linux-gnu"

@.str = private unnamed_addr constant [5 x i8] c"End\0A\00", align 1
@.str.1 = private unnamed_addr constant [16 x i8] c"%d%c%d%c%d%c%d\0A\00", align 1
@.str.2 = private unnamed_addr constant [12 x i8] c"%d%c%d%c%d\0A\00", align 1
@.str.3 = private unnamed_addr constant [3 x i8] c"%d\00", align 1

; Function Attrs: noinline nounwind uwtable
define dso_local i32 @jiaogu(i32 %0) #0 {
  %2 = alloca i32, align 4
  %3 = alloca i32, align 4
  store i32 %0, i32* %3, align 4
  %4 = load i32, i32* %3, align 4
  %5 = icmp eq i32 %4, 1
  br i1 %5, label %6, label %8

6:                                                ; preds = %1
  %7 = call i32 (i8*, ...) @printf(i8* getelementptr inbounds ([5 x i8], [5 x i8]* @.str, i64 0, i64 0))
  store i32 0, i32* %2, align 4
  br label %32

8:                                                ; preds = %1
  %9 = load i32, i32* %3, align 4
  %10 = srem i32 %9, 2
  %11 = icmp ne i32 %10, 0
  br i1 %11, label %12, label %23

12:                                               ; preds = %8
  %13 = load i32, i32* %3, align 4
  %14 = load i32, i32* %3, align 4
  %15 = mul nsw i32 %14, 3
  %16 = add nsw i32 %15, 1
  %17 = call i32 (i8*, ...) @printf(i8* getelementptr inbounds ([16 x i8], [16 x i8]* @.str.1, i64 0, i64 0), i32 %13, i32 42, i32 3, i32 43, i32 1, i32 61, i32 %16)
  %18 = load i32, i32* %3, align 4
  %19 = mul nsw i32 %18, 3
  %20 = add nsw i32 %19, 1
  store i32 %20, i32* %3, align 4
  %21 = load i32, i32* %3, align 4
  %22 = call i32 @jiaogu(i32 %21)
  store i32 0, i32* %2, align 4
  br label %32

23:                                               ; preds = %8
  %24 = load i32, i32* %3, align 4
  %25 = load i32, i32* %3, align 4
  %26 = sdiv i32 %25, 2
  %27 = call i32 (i8*, ...) @printf(i8* getelementptr inbounds ([12 x i8], [12 x i8]* @.str.2, i64 0, i64 0), i32 %24, i32 47, i32 2, i32 61, i32 %26)
  %28 = load i32, i32* %3, align 4
  %29 = sdiv i32 %28, 2
  store i32 %29, i32* %3, align 4
  %30 = load i32, i32* %3, align 4
  %31 = call i32 @jiaogu(i32 %30)
  store i32 0, i32* %2, align 4
  br label %32

32:                                               ; preds = %23, %12, %6
  %33 = load i32, i32* %2, align 4
  ret i32 %33
}

declare dso_local i32 @printf(i8*, ...) #1

; Function Attrs: noinline nounwind uwtable
define dso_local i32 @main() #0 {
  %1 = alloca i32, align 4
  %2 = alloca i32, align 4
  store i32 0, i32* %1, align 4
  %3 = call i32 (i8*, ...) @__isoc99_scanf(i8* getelementptr inbounds ([3 x i8], [3 x i8]* @.str.3, i64 0, i64 0), i32* %2)
  %4 = load i32, i32* %2, align 4
  %5 = call i32 @jiaogu(i32 %4)
  ret i32 0
}

declare dso_local i32 @__isoc99_scanf(i8*, ...) #1


!llvm.module.flags = !{!0}
!llvm.ident = !{!1}

!0 = !{i32 1, !"wchar_size", i32 4}
!1 = !{!"clang version 10.0.0-4ubuntu1 "}
